; Function Attrs: nounwind uwtable
define dso_local noundef i32 @StartLO(ptr noundef %0, i32 noundef %1) local_unnamed_addr #0 {
  %3 = getelementptr inbounds nuw i8, ptr %0, i64 344
  %4 = load ptr, ptr %3, align 8
  %.not = icmp eq ptr %4, null
  br i1 %.not, label %5, label %6

5:                                                ; preds = %2
  tail call void (i32, i32, ptr, ...) @pg_log_generic(i32 noundef 4, i32 noundef 0, ptr noundef nonnull @.str.62) #22
  tail call void @exit_nicely(i32 noundef 1) #23
  unreachable

6:                                                ; preds = %2
  %7 = getelementptr inbounds nuw i8, ptr %0, i64 536
  %8 = load ptr, ptr %7, align 8
  tail call void %4(ptr noundef nonnull %0, ptr noundef %8, i32 noundef %1) #22
  ret i32 1
}